
rv32um-p-mulh:     file format elf32-littleriscv


Disassembly of section .text.init:

80000000 <_start>:
80000000:	a225                	j	80000128 <reset_vector>
80000002:	0001                	nop

80000004 <trap_vector>:
80000004:	34051073          	csrw	mscratch,a0
80000008:	00002517          	auipc	a0,0x2
8000000c:	ff850513          	addi	a0,a0,-8 # 80002000 <test_trap_data>
80000010:	01e52023          	sw	t5,0(a0)
80000014:	01f52223          	sw	t6,4(a0)
80000018:	34202f73          	csrr	t5,mcause
8000001c:	020f4f63          	bltz	t5,8000005a <other_interrupts>
80000020:	4fa1                	li	t6,8
80000022:	05ff0d63          	beq	t5,t6,8000007c <write_tohost>
80000026:	4fa5                	li	t6,9
80000028:	05ff0a63          	beq	t5,t6,8000007c <write_tohost>
8000002c:	4fad                	li	t6,11
8000002e:	05ff0763          	beq	t5,t6,8000007c <write_tohost>
80000032:	4f85                	li	t6,1
80000034:	0bff0063          	beq	t5,t6,800000d4 <ifetch_error_handler>
80000038:	4f95                	li	t6,5
8000003a:	0bff0b63          	beq	t5,t6,800000f0 <load_error_handler>
8000003e:	4f9d                	li	t6,7
80000040:	0dff0663          	beq	t5,t6,8000010c <store_error_handler>
80000044:	00000f13          	li	t5,0
80000048:	000f0363          	beqz	t5,8000004e <trap_vector+0x4a>
8000004c:	8f02                	jr	t5
8000004e:	34202f73          	csrr	t5,mcause
80000052:	000f5363          	bgez	t5,80000058 <handle_exception>
80000056:	a009                	j	80000058 <handle_exception>

80000058 <handle_exception>:
80000058:	a005                	j	80000078 <other_interrupts+0x1e>

8000005a <other_interrupts>:
8000005a:	80000fb7          	lui	t6,0x80000
8000005e:	0f8d                	addi	t6,t6,3
80000060:	05ff0263          	beq	t5,t6,800000a4 <sft_irq_handler>
80000064:	80000fb7          	lui	t6,0x80000
80000068:	0f9d                	addi	t6,t6,7
8000006a:	05ff0963          	beq	t5,t6,800000bc <tmr_irq_handler>
8000006e:	80000fb7          	lui	t6,0x80000
80000072:	0fad                	addi	t6,t6,11
80000074:	01ff0c63          	beq	t5,t6,8000008c <ext_irq_handler>
80000078:	5391e193          	ori	gp,gp,1337

8000007c <write_tohost>:
8000007c:	4521                	li	a0,8
8000007e:	30052073          	csrs	mstatus,a0
80000082:	00001f17          	auipc	t5,0x1
80000086:	f63f2f23          	sw	gp,-130(t5) # 80001000 <tohost>
8000008a:	bfcd                	j	8000007c <write_tohost>

8000008c <ext_irq_handler>:
8000008c:	00002517          	auipc	a0,0x2
80000090:	f7450513          	addi	a0,a0,-140 # 80002000 <test_trap_data>
80000094:	00052f03          	lw	t5,0(a0)
80000098:	00452f83          	lw	t6,4(a0)
8000009c:	34002573          	csrr	a0,mscratch
800000a0:	30200073          	mret

800000a4 <sft_irq_handler>:
800000a4:	00002517          	auipc	a0,0x2
800000a8:	f5c50513          	addi	a0,a0,-164 # 80002000 <test_trap_data>
800000ac:	00052f03          	lw	t5,0(a0)
800000b0:	00452f83          	lw	t6,4(a0)
800000b4:	34002573          	csrr	a0,mscratch
800000b8:	30200073          	mret

800000bc <tmr_irq_handler>:
800000bc:	00002517          	auipc	a0,0x2
800000c0:	f4450513          	addi	a0,a0,-188 # 80002000 <test_trap_data>
800000c4:	00052f03          	lw	t5,0(a0)
800000c8:	00452f83          	lw	t6,4(a0)
800000cc:	34002573          	csrr	a0,mscratch
800000d0:	30200073          	mret

800000d4 <ifetch_error_handler>:
800000d4:	00002517          	auipc	a0,0x2
800000d8:	f2c50513          	addi	a0,a0,-212 # 80002000 <test_trap_data>
800000dc:	00052f03          	lw	t5,0(a0)
800000e0:	00452f83          	lw	t6,4(a0)
800000e4:	34302573          	csrr	a0,mtval
800000e8:	34002573          	csrr	a0,mscratch
800000ec:	30200073          	mret

800000f0 <load_error_handler>:
800000f0:	00002517          	auipc	a0,0x2
800000f4:	f1050513          	addi	a0,a0,-240 # 80002000 <test_trap_data>
800000f8:	00052f03          	lw	t5,0(a0)
800000fc:	00452f83          	lw	t6,4(a0)
80000100:	34302573          	csrr	a0,mtval
80000104:	34002573          	csrr	a0,mscratch
80000108:	30200073          	mret

8000010c <store_error_handler>:
8000010c:	00002517          	auipc	a0,0x2
80000110:	ef450513          	addi	a0,a0,-268 # 80002000 <test_trap_data>
80000114:	00052f03          	lw	t5,0(a0)
80000118:	00452f83          	lw	t6,4(a0)
8000011c:	34302573          	csrr	a0,mtval
80000120:	34002573          	csrr	a0,mscratch
80000124:	30200073          	mret

80000128 <reset_vector>:
80000128:	00000f13          	li	t5,0
8000012c:	00000f93          	li	t6,0
80000130:	f1402573          	csrr	a0,mhartid
80000134:	e101                	bnez	a0,80000134 <reset_vector+0xc>
80000136:	4181                	li	gp,0
80000138:	00000297          	auipc	t0,0x0
8000013c:	ecc28293          	addi	t0,t0,-308 # 80000004 <trap_vector>
80000140:	4521                	li	a0,8
80000142:	30052073          	csrs	mstatus,a0
80000146:	fff00513          	li	a0,-1
8000014a:	30452073          	csrs	mie,a0
8000014e:	30529073          	csrw	mtvec,t0

80000152 <post_mtvec>:
80000152:	00000293          	li	t0,0
80000156:	00028d63          	beqz	t0,80000170 <post_mtvec+0x1e>
8000015a:	10529073          	csrw	stvec,t0
8000015e:	62ad                	lui	t0,0xb
80000160:	10928293          	addi	t0,t0,265 # b109 <_start-0x7fff4ef7>
80000164:	30229073          	csrw	medeleg,t0
80000168:	30202373          	csrr	t1,medeleg
8000016c:	ee6296e3          	bne	t0,t1,80000058 <handle_exception>
80000170:	30005073          	csrwi	mstatus,0
80000174:	08000513          	li	a0,128
80000178:	30052073          	csrs	mstatus,a0
8000017c:	4501                	li	a0,0
8000017e:	bfc51073          	csrw	0xbfc,a0
80000182:	0000100f          	fence.i
80000186:	6285                	lui	t0,0x1
80000188:	a0028293          	addi	t0,t0,-1536 # a00 <_start-0x7ffff600>

8000018c <waitloop1>:
8000018c:	12fd                	addi	t0,t0,-1
8000018e:	fe029fe3          	bnez	t0,8000018c <waitloop1>
80000192:	100083b7          	lui	t2,0x10008
80000196:	03a1                	addi	t2,t2,8
80000198:	0003a283          	lw	t0,0(t2) # 10008000 <_start-0x6fff8000>
8000019c:	00040337          	lui	t1,0x40
800001a0:	fff34313          	not	t1,t1
800001a4:	0062f2b3          	and	t0,t0,t1
800001a8:	0053a023          	sw	t0,0(t2)
800001ac:	40000293          	li	t0,1024

800001b0 <waitloop2>:
800001b0:	12fd                	addi	t0,t0,-1
800001b2:	0003ae03          	lw	t3,0(t2)
800001b6:	fe029de3          	bnez	t0,800001b0 <waitloop2>
800001ba:	0003a283          	lw	t0,0(t2)
800001be:	00040337          	lui	t1,0x40
800001c2:	0062e2b3          	or	t0,t0,t1
800001c6:	0053a023          	sw	t0,0(t2)
800001ca:	0003a283          	lw	t0,0(t2)
800001ce:	4305                	li	t1,1
800001d0:	0062e2b3          	or	t0,t0,t1
800001d4:	0053a023          	sw	t0,0(t2)
800001d8:	0003a283          	lw	t0,0(t2)
800001dc:	02000313          	li	t1,32
800001e0:	0062e2b3          	or	t0,t0,t1
800001e4:	0053a023          	sw	t0,0(t2)
800001e8:	6285                	lui	t0,0x1
800001ea:	a0028293          	addi	t0,t0,-1536 # a00 <_start-0x7ffff600>

800001ee <waitloop3>:
800001ee:	12fd                	addi	t0,t0,-1
800001f0:	fe029fe3          	bnez	t0,800001ee <waitloop3>
800001f4:	0003a283          	lw	t0,0(t2)
800001f8:	00040337          	lui	t1,0x40
800001fc:	fff34313          	not	t1,t1
80000200:	0062f2b3          	and	t0,t0,t1
80000204:	0053a023          	sw	t0,0(t2)
80000208:	10000293          	li	t0,256

8000020c <waitloop4>:
8000020c:	12fd                	addi	t0,t0,-1
8000020e:	fe029fe3          	bnez	t0,8000020c <waitloop4>
80000212:	100083b7          	lui	t2,0x10008
80000216:	03b1                	addi	t2,t2,12
80000218:	0003a283          	lw	t0,0(t2) # 10008000 <_start-0x6fff8000>
8000021c:	10000313          	li	t1,256
80000220:	fff34313          	not	t1,t1
80000224:	0062f2b3          	and	t0,t0,t1
80000228:	4309                	li	t1,2
8000022a:	0062e2b3          	or	t0,t0,t1
8000022e:	0053a023          	sw	t0,0(t2)
80000232:	40000293          	li	t0,1024
80000236:	00000297          	auipc	t0,0x0
8000023a:	01428293          	addi	t0,t0,20 # 8000024a <test_2>
8000023e:	34129073          	csrw	mepc,t0
80000242:	f1402573          	csrr	a0,mhartid
80000246:	30200073          	mret

8000024a <test_2>:
8000024a:	4081                	li	ra,0
8000024c:	4101                	li	sp,0
8000024e:	02209f33          	mulh	t5,ra,sp
80000252:	4e81                	li	t4,0
80000254:	4189                	li	gp,2
80000256:	3bdf1563          	bne	t5,t4,80000600 <fail>

8000025a <test_3>:
8000025a:	4085                	li	ra,1
8000025c:	4105                	li	sp,1
8000025e:	02209f33          	mulh	t5,ra,sp
80000262:	4e81                	li	t4,0
80000264:	418d                	li	gp,3
80000266:	39df1d63          	bne	t5,t4,80000600 <fail>

8000026a <test_4>:
8000026a:	408d                	li	ra,3
8000026c:	411d                	li	sp,7
8000026e:	02209f33          	mulh	t5,ra,sp
80000272:	4e81                	li	t4,0
80000274:	4191                	li	gp,4
80000276:	39df1563          	bne	t5,t4,80000600 <fail>

8000027a <test_5>:
8000027a:	4081                	li	ra,0
8000027c:	ffff8137          	lui	sp,0xffff8
80000280:	02209f33          	mulh	t5,ra,sp
80000284:	4e81                	li	t4,0
80000286:	4195                	li	gp,5
80000288:	37df1c63          	bne	t5,t4,80000600 <fail>

8000028c <test_6>:
8000028c:	800000b7          	lui	ra,0x80000
80000290:	4101                	li	sp,0
80000292:	02209f33          	mulh	t5,ra,sp
80000296:	4e81                	li	t4,0
80000298:	4199                	li	gp,6
8000029a:	37df1363          	bne	t5,t4,80000600 <fail>

8000029e <test_7>:
8000029e:	800000b7          	lui	ra,0x80000
800002a2:	4101                	li	sp,0
800002a4:	02209f33          	mulh	t5,ra,sp
800002a8:	4e81                	li	t4,0
800002aa:	419d                	li	gp,7
800002ac:	35df1a63          	bne	t5,t4,80000600 <fail>

800002b0 <test_30>:
800002b0:	aaaab0b7          	lui	ra,0xaaaab
800002b4:	aab08093          	addi	ra,ra,-1365 # aaaaaaab <_end+0x2aaa8a9b>
800002b8:	00030137          	lui	sp,0x30
800002bc:	e7d10113          	addi	sp,sp,-387 # 2fe7d <_start-0x7ffd0183>
800002c0:	02209f33          	mulh	t5,ra,sp
800002c4:	7ec1                	lui	t4,0xffff0
800002c6:	081e8e93          	addi	t4,t4,129 # ffff0081 <_end+0x7ffee071>
800002ca:	41f9                	li	gp,30
800002cc:	33df1a63          	bne	t5,t4,80000600 <fail>

800002d0 <test_31>:
800002d0:	000300b7          	lui	ra,0x30
800002d4:	e7d08093          	addi	ra,ra,-387 # 2fe7d <_start-0x7ffd0183>
800002d8:	aaaab137          	lui	sp,0xaaaab
800002dc:	aab10113          	addi	sp,sp,-1365 # aaaaaaab <_end+0x2aaa8a9b>
800002e0:	02209f33          	mulh	t5,ra,sp
800002e4:	7ec1                	lui	t4,0xffff0
800002e6:	081e8e93          	addi	t4,t4,129 # ffff0081 <_end+0x7ffee071>
800002ea:	41fd                	li	gp,31
800002ec:	31df1a63          	bne	t5,t4,80000600 <fail>

800002f0 <test_32>:
800002f0:	ff0000b7          	lui	ra,0xff000
800002f4:	ff000137          	lui	sp,0xff000
800002f8:	02209f33          	mulh	t5,ra,sp
800002fc:	6ec1                	lui	t4,0x10
800002fe:	02000193          	li	gp,32
80000302:	2fdf1f63          	bne	t5,t4,80000600 <fail>

80000306 <test_33>:
80000306:	fff00093          	li	ra,-1
8000030a:	fff00113          	li	sp,-1
8000030e:	02209f33          	mulh	t5,ra,sp
80000312:	4e81                	li	t4,0
80000314:	02100193          	li	gp,33
80000318:	2fdf1463          	bne	t5,t4,80000600 <fail>

8000031c <test_34>:
8000031c:	fff00093          	li	ra,-1
80000320:	4105                	li	sp,1
80000322:	02209f33          	mulh	t5,ra,sp
80000326:	fff00e93          	li	t4,-1
8000032a:	02200193          	li	gp,34
8000032e:	2ddf1963          	bne	t5,t4,80000600 <fail>

80000332 <test_35>:
80000332:	4085                	li	ra,1
80000334:	fff00113          	li	sp,-1
80000338:	02209f33          	mulh	t5,ra,sp
8000033c:	fff00e93          	li	t4,-1
80000340:	02300193          	li	gp,35
80000344:	2bdf1e63          	bne	t5,t4,80000600 <fail>

80000348 <test_8>:
80000348:	00d000b7          	lui	ra,0xd00
8000034c:	00b00137          	lui	sp,0xb00
80000350:	022090b3          	mulh	ra,ra,sp
80000354:	6ea5                	lui	t4,0x9
80000356:	f00e8e93          	addi	t4,t4,-256 # 8f00 <_start-0x7fff7100>
8000035a:	41a1                	li	gp,8
8000035c:	2bd09263          	bne	ra,t4,80000600 <fail>

80000360 <test_9>:
80000360:	00e000b7          	lui	ra,0xe00
80000364:	00b00137          	lui	sp,0xb00
80000368:	02209133          	mulh	sp,ra,sp
8000036c:	6ea9                	lui	t4,0xa
8000036e:	a00e8e93          	addi	t4,t4,-1536 # 9a00 <_start-0x7fff6600>
80000372:	41a5                	li	gp,9
80000374:	29d11663          	bne	sp,t4,80000600 <fail>

80000378 <test_10>:
80000378:	00d000b7          	lui	ra,0xd00
8000037c:	021090b3          	mulh	ra,ra,ra
80000380:	6ead                	lui	t4,0xb
80000382:	900e8e93          	addi	t4,t4,-1792 # a900 <_start-0x7fff5700>
80000386:	41a9                	li	gp,10
80000388:	27d09c63          	bne	ra,t4,80000600 <fail>

8000038c <test_11>:
8000038c:	4201                	li	tp,0
8000038e:	00d000b7          	lui	ra,0xd00
80000392:	00b00137          	lui	sp,0xb00
80000396:	02209f33          	mulh	t5,ra,sp
8000039a:	000f0313          	mv	t1,t5
8000039e:	0205                	addi	tp,tp,1
800003a0:	4289                	li	t0,2
800003a2:	fe5216e3          	bne	tp,t0,8000038e <test_11+0x2>
800003a6:	6ea5                	lui	t4,0x9
800003a8:	f00e8e93          	addi	t4,t4,-256 # 8f00 <_start-0x7fff7100>
800003ac:	41ad                	li	gp,11
800003ae:	25d31963          	bne	t1,t4,80000600 <fail>

800003b2 <test_12>:
800003b2:	4201                	li	tp,0
800003b4:	00e000b7          	lui	ra,0xe00
800003b8:	00b00137          	lui	sp,0xb00
800003bc:	02209f33          	mulh	t5,ra,sp
800003c0:	0001                	nop
800003c2:	000f0313          	mv	t1,t5
800003c6:	0205                	addi	tp,tp,1
800003c8:	4289                	li	t0,2
800003ca:	fe5215e3          	bne	tp,t0,800003b4 <test_12+0x2>
800003ce:	6ea9                	lui	t4,0xa
800003d0:	a00e8e93          	addi	t4,t4,-1536 # 9a00 <_start-0x7fff6600>
800003d4:	41b1                	li	gp,12
800003d6:	23d31563          	bne	t1,t4,80000600 <fail>

800003da <test_13>:
800003da:	4201                	li	tp,0
800003dc:	00f000b7          	lui	ra,0xf00
800003e0:	00b00137          	lui	sp,0xb00
800003e4:	02209f33          	mulh	t5,ra,sp
800003e8:	0001                	nop
800003ea:	0001                	nop
800003ec:	000f0313          	mv	t1,t5
800003f0:	0205                	addi	tp,tp,1
800003f2:	4289                	li	t0,2
800003f4:	fe5214e3          	bne	tp,t0,800003dc <test_13+0x2>
800003f8:	6ea9                	lui	t4,0xa
800003fa:	500e8e93          	addi	t4,t4,1280 # a500 <_start-0x7fff5b00>
800003fe:	41b5                	li	gp,13
80000400:	21d31063          	bne	t1,t4,80000600 <fail>

80000404 <test_14>:
80000404:	4201                	li	tp,0
80000406:	00d000b7          	lui	ra,0xd00
8000040a:	00b00137          	lui	sp,0xb00
8000040e:	02209f33          	mulh	t5,ra,sp
80000412:	0205                	addi	tp,tp,1
80000414:	4289                	li	t0,2
80000416:	fe5218e3          	bne	tp,t0,80000406 <test_14+0x2>
8000041a:	6ea5                	lui	t4,0x9
8000041c:	f00e8e93          	addi	t4,t4,-256 # 8f00 <_start-0x7fff7100>
80000420:	41b9                	li	gp,14
80000422:	1ddf1f63          	bne	t5,t4,80000600 <fail>

80000426 <test_15>:
80000426:	4201                	li	tp,0
80000428:	00e000b7          	lui	ra,0xe00
8000042c:	00b00137          	lui	sp,0xb00
80000430:	0001                	nop
80000432:	02209f33          	mulh	t5,ra,sp
80000436:	0205                	addi	tp,tp,1
80000438:	4289                	li	t0,2
8000043a:	fe5217e3          	bne	tp,t0,80000428 <test_15+0x2>
8000043e:	6ea9                	lui	t4,0xa
80000440:	a00e8e93          	addi	t4,t4,-1536 # 9a00 <_start-0x7fff6600>
80000444:	41bd                	li	gp,15
80000446:	1bdf1d63          	bne	t5,t4,80000600 <fail>

8000044a <test_16>:
8000044a:	4201                	li	tp,0
8000044c:	00f000b7          	lui	ra,0xf00
80000450:	00b00137          	lui	sp,0xb00
80000454:	0001                	nop
80000456:	0001                	nop
80000458:	02209f33          	mulh	t5,ra,sp
8000045c:	0205                	addi	tp,tp,1
8000045e:	4289                	li	t0,2
80000460:	fe5216e3          	bne	tp,t0,8000044c <test_16+0x2>
80000464:	6ea9                	lui	t4,0xa
80000466:	500e8e93          	addi	t4,t4,1280 # a500 <_start-0x7fff5b00>
8000046a:	41c1                	li	gp,16
8000046c:	19df1a63          	bne	t5,t4,80000600 <fail>

80000470 <test_17>:
80000470:	4201                	li	tp,0
80000472:	00d000b7          	lui	ra,0xd00
80000476:	0001                	nop
80000478:	00b00137          	lui	sp,0xb00
8000047c:	02209f33          	mulh	t5,ra,sp
80000480:	0205                	addi	tp,tp,1
80000482:	4289                	li	t0,2
80000484:	fe5217e3          	bne	tp,t0,80000472 <test_17+0x2>
80000488:	6ea5                	lui	t4,0x9
8000048a:	f00e8e93          	addi	t4,t4,-256 # 8f00 <_start-0x7fff7100>
8000048e:	41c5                	li	gp,17
80000490:	17df1863          	bne	t5,t4,80000600 <fail>

80000494 <test_18>:
80000494:	4201                	li	tp,0
80000496:	00e000b7          	lui	ra,0xe00
8000049a:	0001                	nop
8000049c:	00b00137          	lui	sp,0xb00
800004a0:	0001                	nop
800004a2:	02209f33          	mulh	t5,ra,sp
800004a6:	0205                	addi	tp,tp,1
800004a8:	4289                	li	t0,2
800004aa:	fe5216e3          	bne	tp,t0,80000496 <test_18+0x2>
800004ae:	6ea9                	lui	t4,0xa
800004b0:	a00e8e93          	addi	t4,t4,-1536 # 9a00 <_start-0x7fff6600>
800004b4:	41c9                	li	gp,18
800004b6:	15df1563          	bne	t5,t4,80000600 <fail>

800004ba <test_19>:
800004ba:	4201                	li	tp,0
800004bc:	00f000b7          	lui	ra,0xf00
800004c0:	0001                	nop
800004c2:	0001                	nop
800004c4:	00b00137          	lui	sp,0xb00
800004c8:	02209f33          	mulh	t5,ra,sp
800004cc:	0205                	addi	tp,tp,1
800004ce:	4289                	li	t0,2
800004d0:	fe5216e3          	bne	tp,t0,800004bc <test_19+0x2>
800004d4:	6ea9                	lui	t4,0xa
800004d6:	500e8e93          	addi	t4,t4,1280 # a500 <_start-0x7fff5b00>
800004da:	41cd                	li	gp,19
800004dc:	13df1263          	bne	t5,t4,80000600 <fail>

800004e0 <test_20>:
800004e0:	4201                	li	tp,0
800004e2:	00b00137          	lui	sp,0xb00
800004e6:	00d000b7          	lui	ra,0xd00
800004ea:	02209f33          	mulh	t5,ra,sp
800004ee:	0205                	addi	tp,tp,1
800004f0:	4289                	li	t0,2
800004f2:	fe5218e3          	bne	tp,t0,800004e2 <test_20+0x2>
800004f6:	6ea5                	lui	t4,0x9
800004f8:	f00e8e93          	addi	t4,t4,-256 # 8f00 <_start-0x7fff7100>
800004fc:	41d1                	li	gp,20
800004fe:	11df1163          	bne	t5,t4,80000600 <fail>

80000502 <test_21>:
80000502:	4201                	li	tp,0
80000504:	00b00137          	lui	sp,0xb00
80000508:	00e000b7          	lui	ra,0xe00
8000050c:	0001                	nop
8000050e:	02209f33          	mulh	t5,ra,sp
80000512:	0205                	addi	tp,tp,1
80000514:	4289                	li	t0,2
80000516:	fe5217e3          	bne	tp,t0,80000504 <test_21+0x2>
8000051a:	6ea9                	lui	t4,0xa
8000051c:	a00e8e93          	addi	t4,t4,-1536 # 9a00 <_start-0x7fff6600>
80000520:	41d5                	li	gp,21
80000522:	0ddf1f63          	bne	t5,t4,80000600 <fail>

80000526 <test_22>:
80000526:	4201                	li	tp,0
80000528:	00b00137          	lui	sp,0xb00
8000052c:	00f000b7          	lui	ra,0xf00
80000530:	0001                	nop
80000532:	0001                	nop
80000534:	02209f33          	mulh	t5,ra,sp
80000538:	0205                	addi	tp,tp,1
8000053a:	4289                	li	t0,2
8000053c:	fe5216e3          	bne	tp,t0,80000528 <test_22+0x2>
80000540:	6ea9                	lui	t4,0xa
80000542:	500e8e93          	addi	t4,t4,1280 # a500 <_start-0x7fff5b00>
80000546:	41d9                	li	gp,22
80000548:	0bdf1c63          	bne	t5,t4,80000600 <fail>

8000054c <test_23>:
8000054c:	4201                	li	tp,0
8000054e:	00b00137          	lui	sp,0xb00
80000552:	0001                	nop
80000554:	00d000b7          	lui	ra,0xd00
80000558:	02209f33          	mulh	t5,ra,sp
8000055c:	0205                	addi	tp,tp,1
8000055e:	4289                	li	t0,2
80000560:	fe5217e3          	bne	tp,t0,8000054e <test_23+0x2>
80000564:	6ea5                	lui	t4,0x9
80000566:	f00e8e93          	addi	t4,t4,-256 # 8f00 <_start-0x7fff7100>
8000056a:	41dd                	li	gp,23
8000056c:	09df1a63          	bne	t5,t4,80000600 <fail>

80000570 <test_24>:
80000570:	4201                	li	tp,0
80000572:	00b00137          	lui	sp,0xb00
80000576:	0001                	nop
80000578:	00e000b7          	lui	ra,0xe00
8000057c:	0001                	nop
8000057e:	02209f33          	mulh	t5,ra,sp
80000582:	0205                	addi	tp,tp,1
80000584:	4289                	li	t0,2
80000586:	fe5216e3          	bne	tp,t0,80000572 <test_24+0x2>
8000058a:	6ea9                	lui	t4,0xa
8000058c:	a00e8e93          	addi	t4,t4,-1536 # 9a00 <_start-0x7fff6600>
80000590:	41e1                	li	gp,24
80000592:	07df1763          	bne	t5,t4,80000600 <fail>

80000596 <test_25>:
80000596:	4201                	li	tp,0
80000598:	00b00137          	lui	sp,0xb00
8000059c:	0001                	nop
8000059e:	0001                	nop
800005a0:	00f000b7          	lui	ra,0xf00
800005a4:	02209f33          	mulh	t5,ra,sp
800005a8:	0205                	addi	tp,tp,1
800005aa:	4289                	li	t0,2
800005ac:	fe5216e3          	bne	tp,t0,80000598 <test_25+0x2>
800005b0:	6ea9                	lui	t4,0xa
800005b2:	500e8e93          	addi	t4,t4,1280 # a500 <_start-0x7fff5b00>
800005b6:	41e5                	li	gp,25
800005b8:	05df1463          	bne	t5,t4,80000600 <fail>

800005bc <test_26>:
800005bc:	7c0000b7          	lui	ra,0x7c000
800005c0:	02101133          	mulh	sp,zero,ra
800005c4:	4e81                	li	t4,0
800005c6:	41e9                	li	gp,26
800005c8:	03d11c63          	bne	sp,t4,80000600 <fail>

800005cc <test_27>:
800005cc:	800000b7          	lui	ra,0x80000
800005d0:	02009133          	mulh	sp,ra,zero
800005d4:	4e81                	li	t4,0
800005d6:	41ed                	li	gp,27
800005d8:	03d11463          	bne	sp,t4,80000600 <fail>

800005dc <test_28>:
800005dc:	020010b3          	mulh	ra,zero,zero
800005e0:	4e81                	li	t4,0
800005e2:	41f1                	li	gp,28
800005e4:	01d09e63          	bne	ra,t4,80000600 <fail>

800005e8 <test_29>:
800005e8:	021000b7          	lui	ra,0x2100
800005ec:	02200137          	lui	sp,0x2200
800005f0:	02209033          	mulh	zero,ra,sp
800005f4:	4e81                	li	t4,0
800005f6:	41f5                	li	gp,29
800005f8:	01d01463          	bne	zero,t4,80000600 <fail>
800005fc:	00301b63          	bne	zero,gp,80000612 <pass>

80000600 <fail>:
80000600:	0ff0000f          	fence
80000604:	00018063          	beqz	gp,80000604 <fail+0x4>
80000608:	0186                	slli	gp,gp,0x1
8000060a:	0011e193          	ori	gp,gp,1
8000060e:	00000073          	ecall

80000612 <pass>:
80000612:	0ff0000f          	fence
80000616:	4185                	li	gp,1
80000618:	00000073          	ecall
	...

Disassembly of section .tohost:

80001000 <tohost>:
	...

80001040 <fromhost>:
	...

Disassembly of section .data:

80002000 <test_trap_data>:
	...

Disassembly of section .riscv.attributes:

00000000 <.riscv.attributes>:
   0:	3641                	jal	fffffb80 <_end+0x7fffdb70>
   2:	0000                	unimp
   4:	7200                	flw	fs0,32(a2)
   6:	7369                	lui	t1,0xffffa
   8:	01007663          	bgeu	zero,a6,14 <_start-0x7fffffec>
   c:	002c                	addi	a1,sp,8
   e:	0000                	unimp
  10:	7205                	lui	tp,0xfffe1
  12:	3376                	fld	ft6,376(sp)
  14:	6932                	flw	fs2,12(sp)
  16:	7032                	flw	ft0,44(sp)
  18:	5f30                	lw	a2,120(a4)
  1a:	326d                	jal	fffff9c4 <_end+0x7fffd9b4>
  1c:	3070                	fld	fa2,224(s0)
  1e:	615f 7032 5f30      	0x5f307032615f
  24:	3266                	fld	ft4,120(sp)
  26:	3070                	fld	fa2,224(s0)
  28:	645f 7032 5f30      	0x5f307032645f
  2e:	30703263          	0x30703263
  32:	0800                	addi	s0,sp,16
  34:	0a01                	addi	s4,s4,0
  36:	0b              	Address 0x0000000000000036 is out of bounds.

